target datalayout = "e-m:e-p270:32:32-p271:32:32-p272:64:64-i64:64-i128:128-f80:128-n8:16:32:64-S128"
target triple = "x86_64-pc-linux-gnu"

%"class.std::__cxx11::basic_string" = type { %"struct.std::__cxx11::basic_string<char>::_Alloc_hider", i64, %union.anon }
%"struct.std::__cxx11::basic_string<char>::_Alloc_hider" = type { ptr }
%union.anon = type { i64, [8 x i8] }
%"class.std::_Function_base" = type { %"union.std::_Any_data", ptr }
%"union.std::_Any_data" = type { %"union.std::_Nocopy_types" }
%"union.std::_Nocopy_types" = type { { i64, i64 } }
%"struct.Luau::NotNull" = type { ptr }
%"struct.Luau::Position" = type { i32, i32 }
%"class.std::shared_ptr.119" = type { %"class.std::__shared_ptr.120" }
%"class.std::__shared_ptr.120" = type { ptr, %"class.std::__shared_count" }
%"class.std::__shared_count" = type { ptr }
%"class.std::optional.241" = type { %"struct.std::_Optional_base.242" }
%"struct.std::_Optional_base.242" = type { %"struct.std::_Optional_payload.244" }
%"struct.std::_Optional_payload.244" = type { %"struct.std::_Optional_payload_base.base.246", [7 x i8] }
%"struct.std::_Optional_payload_base.base.246" = type <{ %"union.std::_Optional_payload_base<const Luau::Type *>::_Storage", i8 }>
%"union.std::_Optional_payload_base<const Luau::Type *>::_Storage" = type { ptr }
%"class.std::vector.275" = type { %"struct.std::_Vector_base.276" }
%"struct.std::_Vector_base.276" = type { %"struct.std::_Vector_base<std::__cxx11::basic_string<char>, std::allocator<std::__cxx11::basic_string<char>>>::_Vector_impl" }
%"struct.std::_Vector_base<std::__cxx11::basic_string<char>, std::allocator<std::__cxx11::basic_string<char>>>::_Vector_impl" = type { %"struct.std::_Vector_base<std::__cxx11::basic_string<char>, std::allocator<std::__cxx11::basic_string<char>>>::_Vector_impl_data" }
%"struct.std::_Vector_base<std::__cxx11::basic_string<char>, std::allocator<std::__cxx11::basic_string<char>>>::_Vector_impl_data" = type { ptr, ptr, ptr }
%"class.std::optional.265" = type { %"struct.std::_Optional_base.266" }
%"struct.std::_Optional_base.266" = type { %"struct.std::_Optional_payload.268" }
%"struct.std::_Optional_payload.268" = type { %"struct.std::_Optional_payload.base.272", [7 x i8] }
%"struct.std::_Optional_payload.base.272" = type { %"struct.std::_Optional_payload_base.base.271" }
%"struct.std::_Optional_payload_base.base.271" = type <{ %"union.std::_Optional_payload_base<std::__cxx11::basic_string<char>>::_Storage", i8 }>
%"union.std::_Optional_payload_base<std::__cxx11::basic_string<char>>::_Storage" = type { %"class.std::__cxx11::basic_string" }
%"struct.Luau::TypeLevel" = type { i32, i32 }
%"struct.Luau::Location" = type { %"struct.Luau::Position", %"struct.Luau::Position" }
%"struct.Luau::Type" = type { %"class.Luau::Variant", i8, [7 x i8], %"class.std::optional.265", ptr }
%"class.Luau::Variant" = type { i32, [4 x i8], [336 x i8] }
%"class.std::optional.292" = type { %"struct.std::_Optional_base.293" }
%"struct.std::_Optional_base.293" = type { %"struct.std::_Optional_payload.295" }
%"struct.std::_Optional_payload.295" = type { %"struct.std::_Optional_payload_base.base.297", [3 x i8] }
%"struct.std::_Optional_payload_base.base.297" = type <{ %"union.std::_Optional_payload_base<Luau::Location>::_Storage", i8 }>
%"union.std::_Optional_payload_base<Luau::Location>::_Storage" = type { %"struct.Luau::Location" }
%"struct.Luau::FunctionType" = type <{ %"class.std::optional.300", %"class.std::vector.310", %"class.std::vector.315", %"class.std::vector.320", %"class.std::vector.275", %"struct.Luau::TypeLevel", ptr, ptr, ptr, %"class.std::function.325", %"class.std::function.327", ptr, i8, i8, i8, [5 x i8] }>
%"class.std::optional.300" = type { %"struct.std::_Optional_base.301" }
%"struct.std::_Optional_base.301" = type { %"struct.std::_Optional_payload.303" }
%"struct.std::_Optional_payload.303" = type { %"struct.std::_Optional_payload.base.307", [7 x i8] }
%"struct.std::_Optional_payload.base.307" = type { %"struct.std::_Optional_payload_base.base.306" }
%"struct.std::_Optional_payload_base.base.306" = type <{ %"union.std::_Optional_payload_base<Luau::FunctionDefinition>::_Storage", i8 }>
%"union.std::_Optional_payload_base<Luau::FunctionDefinition>::_Storage" = type { %"struct.Luau::FunctionDefinition" }
%"struct.Luau::FunctionDefinition" = type { %"class.std::optional.265", %"struct.Luau::Location", %"class.std::optional.292", %"struct.Luau::Location", [4 x i8] }
%"class.std::vector.310" = type { %"struct.std::_Vector_base.311" }
%"struct.std::_Vector_base.311" = type { %"struct.std::_Vector_base<const Luau::Type *, std::allocator<const Luau::Type *>>::_Vector_impl" }
%"struct.std::_Vector_base<const Luau::Type *, std::allocator<const Luau::Type *>>::_Vector_impl" = type { %"struct.std::_Vector_base<const Luau::Type *, std::allocator<const Luau::Type *>>::_Vector_impl_data" }
%"struct.std::_Vector_base<const Luau::Type *, std::allocator<const Luau::Type *>>::_Vector_impl_data" = type { ptr, ptr, ptr }
%"class.std::vector.315" = type { %"struct.std::_Vector_base.316" }
%"struct.std::_Vector_base.316" = type { %"struct.std::_Vector_base<const Luau::TypePackVar *, std::allocator<const Luau::TypePackVar *>>::_Vector_impl" }
%"struct.std::_Vector_base<const Luau::TypePackVar *, std::allocator<const Luau::TypePackVar *>>::_Vector_impl" = type { %"struct.std::_Vector_base<const Luau::TypePackVar *, std::allocator<const Luau::TypePackVar *>>::_Vector_impl_data" }
%"struct.std::_Vector_base<const Luau::TypePackVar *, std::allocator<const Luau::TypePackVar *>>::_Vector_impl_data" = type { ptr, ptr, ptr }
%"class.std::vector.320" = type { %"struct.std::_Vector_base.321" }
%"struct.std::_Vector_base.321" = type { %"struct.std::_Vector_base<std::optional<Luau::FunctionArgument>, std::allocator<std::optional<Luau::FunctionArgument>>>::_Vector_impl" }
%"struct.std::_Vector_base<std::optional<Luau::FunctionArgument>, std::allocator<std::optional<Luau::FunctionArgument>>>::_Vector_impl" = type { %"struct.std::_Vector_base<std::optional<Luau::FunctionArgument>, std::allocator<std::optional<Luau::FunctionArgument>>>::_Vector_impl_data" }
%"struct.std::_Vector_base<std::optional<Luau::FunctionArgument>, std::allocator<std::optional<Luau::FunctionArgument>>>::_Vector_impl_data" = type { ptr, ptr, ptr }
%"class.std::function.325" = type { %"class.std::_Function_base", ptr }
%"class.std::function.327" = type { %"class.std::_Function_base", ptr }
%"struct.Luau::NotNull.567" = type { ptr }
%class.anon.794 = type <{ ptr, %"struct.Luau::NotNull", ptr, ptr, i8, [7 x i8] }>
%"struct.std::_Optional_payload_base.245" = type <{ %"union.std::_Optional_payload_base<const Luau::Type *>::_Storage", i8, [7 x i8] }>

; Function Attrs: mustprogress nounwind uwtable
define linkonce_odr dso_local noundef nonnull align 8 dereferenceable(8) ptr @_ZNSt22_Optional_payload_baseIPKN4Luau4TypeEE6_M_getEv(ptr noundef nonnull align 8 dereferenceable(9) %0) #1 comdat align 2 {
  %2 = alloca ptr, align 8
  store ptr %0, ptr %2, align 8
  %3 = load ptr, ptr %2, align 8
  %4 = getelementptr inbounds %"struct.std::_Optional_payload_base.245", ptr %3, i32 0, i32 0
  ret ptr %4
}

; Function Attrs: mustprogress nounwind uwtable
define linkonce_odr dso_local noundef ptr @_ZNK4Luau7VariantIJNS_9Unifiable5BoundIPKNS_4TypeEEENS1_5ErrorENS_8FreeTypeENS_11GenericTypeENS_13PrimitiveTypeENS_13SingletonTypeENS_11BlockedTypeENS_20PendingExpansionTypeENS_12FunctionTypeENS_9TableTypeENS_13MetatableTypeENS_9ClassTypeENS_7AnyTypeENS_9UnionTypeENS_16IntersectionTypeENS_8LazyTypeENS_11UnknownTypeENS_9NeverTypeENS_12NegationTypeENS_22TypeFamilyInstanceTypeEEE6get_ifISH_EEPKT_v(ptr noundef nonnull align 8 dereferenceable(344) %0) #1 comdat align 2 {
  %2 = alloca ptr, align 8
  %3 = alloca i32, align 4
  store ptr %0, ptr %2, align 8
  %4 = load ptr, ptr %2, align 8
  store i32 11, ptr %3, align 4
  %5 = getelementptr inbounds %"class.Luau::Variant", ptr %4, i32 0, i32 0
  %6 = load i32, ptr %5, align 8
  %7 = icmp eq i32 11, %6
  br i1 %7, label %8, label %10

8:                                                ; preds = %1
  %9 = getelementptr inbounds %"class.Luau::Variant", ptr %4, i32 0, i32 2
  br label %11

10:                                               ; preds = %1
  br label %11

11:                                               ; preds = %10, %8
  %12 = phi ptr [ %9, %8 ], [ null, %10 ]
  ret ptr %12
}

; Function Attrs: mustprogress nounwind uwtable
define linkonce_odr dso_local noundef nonnull align 8 dereferenceable(8) ptr @_ZNSt19_Optional_base_implIPKN4Luau4TypeESt14_Optional_baseIS3_Lb1ELb1EEE6_M_getEv(ptr noundef nonnull align 1 dereferenceable(1) %0) #1 comdat align 2 {
  %2 = alloca ptr, align 8
  store ptr %0, ptr %2, align 8
  %3 = load ptr, ptr %2, align 8
  br label %4

4:                                                ; preds = %1
  br label %5

5:                                                ; preds = %4
  br label %6

6:                                                ; preds = %5
  %7 = getelementptr inbounds %"struct.std::_Optional_base.242", ptr %3, i32 0, i32 0
  %8 = call noundef nonnull align 8 dereferenceable(8) ptr @_ZNSt22_Optional_payload_baseIPKN4Luau4TypeEE6_M_getEv(ptr noundef nonnull align 8 dereferenceable(9) %7) #2
  ret ptr %8
}

; Function Attrs: mustprogress nounwind uwtable
define linkonce_odr dso_local noundef zeroext i1 @_ZNKSt19_Optional_base_implIPKN4Luau4TypeESt14_Optional_baseIS3_Lb1ELb1EEE13_M_is_engagedEv(ptr noundef nonnull align 1 dereferenceable(1) %0) #1 comdat align 2 {
  %2 = alloca ptr, align 8
  store ptr %0, ptr %2, align 8
  %3 = load ptr, ptr %2, align 8
  %4 = getelementptr inbounds %"struct.std::_Optional_base.242", ptr %3, i32 0, i32 0
  %5 = getelementptr inbounds %"struct.std::_Optional_payload_base.245", ptr %4, i32 0, i32 1
  %6 = load i8, ptr %5, align 8
  %7 = trunc i8 %6 to i1
  ret i1 %7
}

; Function Attrs: mustprogress uwtable
define linkonce_odr dso_local noundef ptr @_ZN4Luau6get_ifINS_9ClassTypeEJNS_9Unifiable5BoundIPKNS_4TypeEEENS2_5ErrorENS_8FreeTypeENS_11GenericTypeENS_13PrimitiveTypeENS_13SingletonTypeENS_11BlockedTypeENS_20PendingExpansionTypeENS_12FunctionTypeENS_9TableTypeENS_13MetatableTypeES1_NS_7AnyTypeENS_9UnionTypeENS_16IntersectionTypeENS_8LazyTypeENS_11UnknownTypeENS_9NeverTypeENS_12NegationTypeENS_22TypeFamilyInstanceTypeEEEEPKT_PKNS_7VariantIJDpT0_EEE(ptr noundef %0) #4 comdat {
  %2 = alloca ptr, align 8
  store ptr %0, ptr %2, align 8
  %3 = load ptr, ptr %2, align 8
  %4 = icmp ne ptr %3, null
  br i1 %4, label %5, label %8

5:                                                ; preds = %1
  %6 = load ptr, ptr %2, align 8
  %7 = call noundef ptr @_ZNK4Luau7VariantIJNS_9Unifiable5BoundIPKNS_4TypeEEENS1_5ErrorENS_8FreeTypeENS_11GenericTypeENS_13PrimitiveTypeENS_13SingletonTypeENS_11BlockedTypeENS_20PendingExpansionTypeENS_12FunctionTypeENS_9TableTypeENS_13MetatableTypeENS_9ClassTypeENS_7AnyTypeENS_9UnionTypeENS_16IntersectionTypeENS_8LazyTypeENS_11UnknownTypeENS_9NeverTypeENS_12NegationTypeENS_22TypeFamilyInstanceTypeEEE6get_ifISH_EEPKT_v(ptr noundef nonnull align 8 dereferenceable(344) %6)
  br label %9

8:                                                ; preds = %1
  br label %9

9:                                                ; preds = %8, %5
  %10 = phi ptr [ %7, %5 ], [ null, %8 ]
  ret ptr %10
}

; Function Attrs: mustprogress nounwind uwtable
define linkonce_odr dso_local void @_ZN4Luau7NotNullINS_5ScopeEEC2EPS1_(ptr noundef nonnull align 8 dereferenceable(8) %0, ptr noundef %1) unnamed_addr #1 comdat align 2 {
  %3 = alloca ptr, align 8
  %4 = alloca ptr, align 8
  store ptr %0, ptr %3, align 8
  store ptr %1, ptr %4, align 8
  %5 = load ptr, ptr %3, align 8
  %6 = getelementptr inbounds %"struct.Luau::NotNull.567", ptr %5, i32 0, i32 0
  %7 = load ptr, ptr %4, align 8
  store ptr %7, ptr %6, align 8
  ret void
}

; Function Attrs: mustprogress nounwind uwtable
define linkonce_odr dso_local noundef ptr @_ZNKSt12__shared_ptrIN4Luau5ScopeELN9__gnu_cxx12_Lock_policyE2EE3getEv(ptr noundef nonnull align 8 dereferenceable(16) %0) #1 comdat align 2 {
  %2 = alloca ptr, align 8
  store ptr %0, ptr %2, align 8
  %3 = load ptr, ptr %2, align 8
  %4 = getelementptr inbounds %"class.std::__shared_ptr.120", ptr %3, i32 0, i32 0
  %5 = load ptr, ptr %4, align 8
  ret ptr %5
}

; Function Attrs: mustprogress nounwind uwtable
define linkonce_odr dso_local noundef nonnull align 8 dereferenceable(8) ptr @_ZNRSt8optionalIPKN4Luau4TypeEEdeEv(ptr noundef nonnull align 8 dereferenceable(16) %0) #1 comdat align 2 {
  %2 = alloca ptr, align 8
  store ptr %0, ptr %2, align 8
  %3 = load ptr, ptr %2, align 8
  %4 = call noundef nonnull align 8 dereferenceable(8) ptr @_ZNSt19_Optional_base_implIPKN4Luau4TypeESt14_Optional_baseIS3_Lb1ELb1EEE6_M_getEv(ptr noundef nonnull align 1 dereferenceable(1) %3) #2
  ret ptr %4
}

; Function Attrs: mustprogress nounwind uwtable
define linkonce_odr dso_local noundef zeroext i1 @_ZNKSt8optionalIPKN4Luau4TypeEEcvbEv(ptr noundef nonnull align 8 dereferenceable(16) %0) #1 comdat align 2 {
  %2 = alloca ptr, align 8
  store ptr %0, ptr %2, align 8
  %3 = load ptr, ptr %2, align 8
  %4 = call noundef zeroext i1 @_ZNKSt19_Optional_base_implIPKN4Luau4TypeESt14_Optional_baseIS3_Lb1ELb1EEE13_M_is_engagedEv(ptr noundef nonnull align 1 dereferenceable(1) %3) #2
  ret i1 %4
}

; Function Attrs: mustprogress uwtable
define linkonce_odr dso_local noundef ptr @_ZN4Luau3getINS_9ClassTypeEEEPKT_PKNS_4TypeE(ptr noundef %0) #4 comdat {
  %2 = alloca ptr, align 8
  store ptr %0, ptr %2, align 8
  %3 = load ptr, ptr %2, align 8
  %4 = getelementptr inbounds %"struct.Luau::Type", ptr %3, i32 0, i32 0
  %5 = call noundef ptr @_ZN4Luau6get_ifINS_9ClassTypeEJNS_9Unifiable5BoundIPKNS_4TypeEEENS2_5ErrorENS_8FreeTypeENS_11GenericTypeENS_13PrimitiveTypeENS_13SingletonTypeENS_11BlockedTypeENS_20PendingExpansionTypeENS_12FunctionTypeENS_9TableTypeENS_13MetatableTypeES1_NS_7AnyTypeENS_9UnionTypeENS_16IntersectionTypeENS_8LazyTypeENS_11UnknownTypeENS_9NeverTypeENS_12NegationTypeENS_22TypeFamilyInstanceTypeEEEEPKT_PKNS_7VariantIJDpT0_EEE(ptr noundef %4)
  ret ptr %5
}

; Function Attrs: mustprogress uwtable
define internal noundef zeroext i1 @"_ZZZN4LuauL17autocompletePropsERKNS_6ModuleEPNS_9TypeArenaENS_7NotNullINS_12BuiltinTypesEEEPKNS_4TypeESA_NS_13PropIndexTypeERKSt6vectorIPNS_7AstNodeESaISE_EERSt13unordered_mapINSt7__cxx1112basic_stringIcSt11char_traitsIcESaIcEEENS_17AutocompleteEntryESt4hashISP_ESt8equal_toISP_ESaISt4pairIKSP_SQ_EEERSt13unordered_setISA_SR_ISA_EST_ISA_ESaISA_EESt8optionalIPKNS_9ClassTypeEEENK3$_2clESA_ENKUlPKNS_12FunctionTypeEE_clES1F_"(ptr noundef nonnull align 8 dereferenceable(33) %0, ptr noundef %1) #4 align 2 personality ptr @__gxx_personality_v0 {
  %3 = alloca i1, align 1
  %4 = alloca ptr, align 8
  %5 = alloca ptr, align 8
  %6 = alloca %"class.std::optional.241", align 8
  %7 = alloca %"struct.Luau::NotNull.567", align 8
  %8 = alloca %"class.std::shared_ptr.119", align 8
  %9 = alloca ptr, align 8
  %10 = alloca i32, align 4
  %11 = alloca %"struct.Luau::NotNull", align 8
  store ptr %0, ptr %4, align 8
  store ptr %1, ptr %5, align 8
  %12 = load ptr, ptr %4, align 8
  %13 = getelementptr inbounds %class.anon.794, ptr %12, i32 0, i32 4
  %14 = load i8, ptr %13, align 8
  %15 = trunc i8 %14 to i1
  %16 = zext i1 %15 to i32
  %17 = load ptr, ptr %5, align 8
  %18 = getelementptr inbounds %"struct.Luau::FunctionType", ptr %17, i32 0, i32 12
  %19 = load i8, ptr %18, align 8
  %20 = trunc i8 %19 to i1
  %21 = zext i1 %20 to i32
  %22 = icmp eq i32 %16, %21
  br i1 %22, label %23, label %24

23:                                               ; preds = %2
  store i1 true, ptr %3, align 1
  br label %74

24:                                               ; preds = %2
  %25 = getelementptr inbounds %class.anon.794, ptr %12, i32 0, i32 3
  %26 = load ptr, ptr %25, align 8
  %27 = call noundef ptr @_ZN4Luau3getINS_9ClassTypeEEEPKT_PKNS_4TypeE(ptr noundef %26)
  %28 = icmp ne ptr %27, null
  br i1 %28, label %29, label %30

29:                                               ; preds = %24
  store i1 false, ptr %3, align 1
  br label %74

30:                                               ; preds = %24
  %31 = load ptr, ptr %5, align 8
  %32 = getelementptr inbounds %"struct.Luau::FunctionType", ptr %31, i32 0, i32 7
  %33 = load ptr, ptr %32, align 8
  %34 = call { ptr, i8 } @_ZN4Luau5firstEPKNS_11TypePackVarEb(ptr noundef %33, i1 noundef zeroext true)
  %35 = getelementptr inbounds %"class.std::optional.241", ptr %6, i32 0, i32 0
  %36 = getelementptr inbounds %"struct.std::_Optional_base.242", ptr %35, i32 0, i32 0
  %37 = getelementptr inbounds { ptr, i8 }, ptr %36, i32 0, i32 0
  %38 = extractvalue { ptr, i8 } %34, 0
  store ptr %38, ptr %37, align 8
  %39 = getelementptr inbounds { ptr, i8 }, ptr %36, i32 0, i32 1
  %40 = extractvalue { ptr, i8 } %34, 1
  store i8 %40, ptr %39, align 8
  %41 = call noundef zeroext i1 @_ZNKSt8optionalIPKN4Luau4TypeEEcvbEv(ptr noundef nonnull align 8 dereferenceable(16) %6) #2
  br i1 %41, label %42, label %69

42:                                               ; preds = %30
  %43 = getelementptr inbounds %class.anon.794, ptr %12, i32 0, i32 3
  %44 = load ptr, ptr %43, align 8
  %45 = call noundef nonnull align 8 dereferenceable(8) ptr @_ZNRSt8optionalIPKN4Luau4TypeEEdeEv(ptr noundef nonnull align 8 dereferenceable(16) %6) #2
  %46 = load ptr, ptr %45, align 8
  %47 = getelementptr inbounds %class.anon.794, ptr %12, i32 0, i32 2
  %48 = load ptr, ptr %47, align 8
  call void @_ZNK4Luau6Module14getModuleScopeEv(ptr dead_on_unwind writable sret(%"class.std::shared_ptr.119") align 8 %8, ptr noundef nonnull align 8 dereferenceable(952) %48)
  %49 = call noundef ptr @_ZNKSt12__shared_ptrIN4Luau5ScopeELN9__gnu_cxx12_Lock_policyE2EE3getEv(ptr noundef nonnull align 8 dereferenceable(16) %8) #2
  invoke void @_ZN4Luau7NotNullINS_5ScopeEEC2EPS1_(ptr noundef nonnull align 8 dereferenceable(8) %7, ptr noundef %49)
          to label %50 unwind label %64

50:                                               ; preds = %42
  %51 = getelementptr inbounds %class.anon.794, ptr %12, i32 0, i32 0
  %52 = load ptr, ptr %51, align 8
  %53 = getelementptr inbounds %class.anon.794, ptr %12, i32 0, i32 1
  call void @llvm.memcpy.p0.p0.i64(ptr align 8 %11, ptr align 8 %53, i64 8, i1 false)
  %54 = getelementptr inbounds %"struct.Luau::NotNull.567", ptr %7, i32 0, i32 0
  %55 = load ptr, ptr %54, align 8
  %56 = getelementptr inbounds %"struct.Luau::NotNull", ptr %11, i32 0, i32 0
  %57 = load ptr, ptr %56, align 8
  %58 = invoke noundef zeroext i1 @_ZN4LuauL14checkTypeMatchEPKNS_4TypeES2_NS_7NotNullINS_5ScopeEEEPNS_9TypeArenaENS3_INS_12BuiltinTypesEEE(ptr noundef %44, ptr noundef %46, ptr %55, ptr noundef %52, ptr %57)
          to label %59 unwind label %64

59:                                               ; preds = %50
  call void @_ZNSt10shared_ptrIN4Luau5ScopeEED2Ev(ptr noundef nonnull align 8 dereferenceable(16) %8) #2
  br i1 %58, label %60, label %68

60:                                               ; preds = %59
  %61 = getelementptr inbounds %class.anon.794, ptr %12, i32 0, i32 4
  %62 = load i8, ptr %61, align 8
  %63 = trunc i8 %62 to i1
  store i1 %63, ptr %3, align 1
  br label %74

64:                                               ; preds = %50, %42
  %65 = landingpad { ptr, i32 }
          cleanup
  %66 = extractvalue { ptr, i32 } %65, 0
  store ptr %66, ptr %9, align 8
  %67 = extractvalue { ptr, i32 } %65, 1
  store i32 %67, ptr %10, align 4
  call void @_ZNSt10shared_ptrIN4Luau5ScopeEED2Ev(ptr noundef nonnull align 8 dereferenceable(16) %8) #2
  br label %76

68:                                               ; preds = %59
  br label %69

69:                                               ; preds = %68, %30
  %70 = getelementptr inbounds %class.anon.794, ptr %12, i32 0, i32 4
  %71 = load i8, ptr %70, align 8
  %72 = trunc i8 %71 to i1
  %73 = xor i1 %72, true
  store i1 %73, ptr %3, align 1
  br label %74

74:                                               ; preds = %69, %60, %29, %23
  %75 = load i1, ptr %3, align 1
  ret i1 %75

76:                                               ; preds = %64
  %77 = load ptr, ptr %9, align 8
  %78 = load i32, ptr %10, align 4
  %79 = insertvalue { ptr, i32 } poison, ptr %77, 0
  %80 = insertvalue { ptr, i32 } %79, i32 %78, 1
  resume { ptr, i32 } %80
}