; Function Attrs: mustprogress uwtable
define internal fastcc noundef zeroext i1 @"_ZZZN4LuauL17autocompletePropsERKNS_6ModuleEPNS_9TypeArenaENS_7NotNullINS_12BuiltinTypesEEEPKNS_4TypeESA_NS_13PropIndexTypeERKSt6vectorIPNS_7AstNodeESaISE_EERSt13unordered_mapINSt7__cxx1112basic_stringIcSt11char_traitsIcESaIcEEENS_17AutocompleteEntryESt4hashISP_ESt8equal_toISP_ESaISt4pairIKSP_SQ_EEERSt13unordered_setISA_SR_ISA_EST_ISA_ESaISA_EESt8optionalIPKNS_9ClassTypeEEENK3$_2clESA_ENKUlPKNS_12FunctionTypeEE_clES1F_"(ptr nocapture noundef nonnull readonly align 8 dereferenceable(33) %0, ptr nocapture noundef readonly %1) unnamed_addr #5 align 2 personality ptr @__gxx_personality_v0 {
  %3 = alloca %"class.std::shared_ptr.119", align 8
  %4 = getelementptr inbounds i8, ptr %0, i64 32
  %5 = load i8, ptr %4, align 8
  %6 = getelementptr inbounds i8, ptr %1, i64 304
  %7 = load i8, ptr %6, align 8
  %8 = xor i8 %7, %5
  %9 = and i8 %8, 1
  %10 = icmp eq i8 %9, 0
  br i1 %10, label %_ZN4Luau3getINS_9ClassTypeEEEPKT_PKNS_4TypeE.exit, label %11

11:                                               ; preds = %2
  %12 = getelementptr inbounds i8, ptr %0, i64 24
  %13 = load ptr, ptr %12, align 8
  %.not.i.i = icmp eq ptr %13, null
  br i1 %.not.i.i, label %17, label %14

14:                                               ; preds = %11
  %15 = load i32, ptr %13, align 8
  %16 = icmp eq i32 %15, 11
  br i1 %16, label %_ZN4Luau3getINS_9ClassTypeEEEPKT_PKNS_4TypeE.exit, label %17

17:                                               ; preds = %14, %11
  %18 = getelementptr inbounds i8, ptr %1, i64 216
  %19 = load ptr, ptr %18, align 8
  %20 = tail call { ptr, i8 } @_ZN4Luau5firstEPKNS_11TypePackVarEb(ptr noundef %19, i1 noundef zeroext true)
  %21 = extractvalue { ptr, i8 } %20, 1
  %22 = trunc i8 %21 to i1
  br i1 %22, label %23, label %74

23:                                               ; preds = %17
  %24 = extractvalue { ptr, i8 } %20, 0
  %25 = load ptr, ptr %12, align 8
  %26 = getelementptr inbounds i8, ptr %0, i64 16
  %27 = load ptr, ptr %26, align 8
  call void @_ZNK4Luau6Module14getModuleScopeEv(ptr dead_on_unwind nonnull writable sret(%"class.std::shared_ptr.119") align 8 %3, ptr noundef nonnull align 8 dereferenceable(952) %27)
  %28 = load ptr, ptr %3, align 8
  %29 = load ptr, ptr %0, align 8
  %30 = getelementptr inbounds i8, ptr %0, i64 8
  %.sroa.0.0.copyload = load ptr, ptr %30, align 8
  %31 = invoke fastcc noundef zeroext i1 @_ZN4LuauL14checkTypeMatchEPKNS_4TypeES2_NS_7NotNullINS_5ScopeEEEPNS_9TypeArenaENS3_INS_12BuiltinTypesEEE(ptr noundef %25, ptr noundef %24, ptr %28, ptr noundef %29, ptr %.sroa.0.0.copyload)
          to label %32 unwind label %72

32:                                               ; preds = %23
  %33 = getelementptr inbounds i8, ptr %3, i64 8
  %34 = load ptr, ptr %33, align 8
  %.not.i.i.i = icmp eq ptr %34, null
  br i1 %.not.i.i.i, label %_ZNSt10shared_ptrIN4Luau5ScopeEED2Ev.exit, label %35

35:                                               ; preds = %32
  %36 = getelementptr inbounds i8, ptr %34, i64 8
  %37 = load atomic i64, ptr %36 acquire, align 8
  %38 = icmp eq i64 %37, 4294967297
  %39 = trunc i64 %37 to i32
  br i1 %38, label %40, label %45

40:                                               ; preds = %35
  store i32 0, ptr %36, align 8
  %41 = getelementptr inbounds i8, ptr %34, i64 12
  store i32 0, ptr %41, align 4
  %42 = load ptr, ptr %34, align 8
  %43 = getelementptr inbounds i8, ptr %42, i64 16
  %44 = load ptr, ptr %43, align 8
  call void %44(ptr noundef nonnull align 8 dereferenceable(16) %34) #22
  br label %_ZNSt16_Sp_counted_baseILN9__gnu_cxx12_Lock_policyE2EE24_M_release_last_use_coldEv.exit.sink.split.i.i.i.i

45:                                               ; preds = %35
  %46 = load i8, ptr @__libc_single_threaded, align 1
  %.not.i.i.i.i = icmp eq i8 %46, 0
  br i1 %.not.i.i.i.i, label %49, label %47

47:                                               ; preds = %45
  %48 = add nsw i32 %39, -1
  store i32 %48, ptr %36, align 4
  br label %51

49:                                               ; preds = %45
  %50 = atomicrmw volatile add ptr %36, i32 -1 acq_rel, align 4
  br label %51

51:                                               ; preds = %49, %47
  %.0.i.i.i.i = phi i32 [ %39, %47 ], [ %50, %49 ]
  %52 = icmp eq i32 %.0.i.i.i.i, 1
  br i1 %52, label %53, label %_ZNSt10shared_ptrIN4Luau5ScopeEED2Ev.exit

53:                                               ; preds = %51
  %54 = load ptr, ptr %34, align 8
  %55 = getelementptr inbounds i8, ptr %54, i64 16
  %56 = load ptr, ptr %55, align 8
  call void %56(ptr noundef nonnull align 8 dereferenceable(16) %34) #22
  %57 = getelementptr inbounds i8, ptr %34, i64 12
  %58 = load i8, ptr @__libc_single_threaded, align 1
  %.not.i.i.i.i.i.i = icmp eq i8 %58, 0
  br i1 %.not.i.i.i.i.i.i, label %62, label %59

59:                                               ; preds = %53
  %60 = load i32, ptr %57, align 4
  %61 = add nsw i32 %60, -1
  store i32 %61, ptr %57, align 4
  br label %64

62:                                               ; preds = %53
  %63 = atomicrmw volatile add ptr %57, i32 -1 acq_rel, align 4
  br label %64

64:                                               ; preds = %62, %59
  %.0.i.i.i.i.i.i = phi i32 [ %60, %59 ], [ %63, %62 ]
  %65 = icmp eq i32 %.0.i.i.i.i.i.i, 1
  br i1 %65, label %_ZNSt16_Sp_counted_baseILN9__gnu_cxx12_Lock_policyE2EE24_M_release_last_use_coldEv.exit.sink.split.i.i.i.i, label %_ZNSt10shared_ptrIN4Luau5ScopeEED2Ev.exit

_ZNSt16_Sp_counted_baseILN9__gnu_cxx12_Lock_policyE2EE24_M_release_last_use_coldEv.exit.sink.split.i.i.i.i: ; preds = %64, %40
  %66 = load ptr, ptr %34, align 8
  %67 = getelementptr inbounds i8, ptr %66, i64 24
  %68 = load ptr, ptr %67, align 8
  call void %68(ptr noundef nonnull align 8 dereferenceable(16) %34) #22
  br label %_ZNSt10shared_ptrIN4Luau5ScopeEED2Ev.exit

_ZNSt10shared_ptrIN4Luau5ScopeEED2Ev.exit:        ; preds = %32, %51, %64, %_ZNSt16_Sp_counted_baseILN9__gnu_cxx12_Lock_policyE2EE24_M_release_last_use_coldEv.exit.sink.split.i.i.i.i
  br i1 %31, label %69, label %74

69:                                               ; preds = %_ZNSt10shared_ptrIN4Luau5ScopeEED2Ev.exit
  %70 = load i8, ptr %4, align 8
  %71 = trunc i8 %70 to i1
  br label %_ZN4Luau3getINS_9ClassTypeEEEPKT_PKNS_4TypeE.exit

72:                                               ; preds = %23
  %73 = landingpad { ptr, i32 }
          cleanup
  call void @_ZNSt10shared_ptrIN4Luau5ScopeEED2Ev(ptr noundef nonnull align 8 dereferenceable(16) %3) #22
  resume { ptr, i32 } %73

74:                                               ; preds = %_ZNSt10shared_ptrIN4Luau5ScopeEED2Ev.exit, %17
  %75 = load i8, ptr %4, align 8
  %76 = trunc i8 %75 to i1
  %77 = xor i1 %76, true
  br label %_ZN4Luau3getINS_9ClassTypeEEEPKT_PKNS_4TypeE.exit

_ZN4Luau3getINS_9ClassTypeEEEPKT_PKNS_4TypeE.exit: ; preds = %14, %2, %74, %69
  %.0 = phi i1 [ %71, %69 ], [ %77, %74 ], [ true, %2 ], [ false, %14 ]
  ret i1 %.0
}